target datalayout = "e-m:e-p270:32:32-p271:32:32-p272:64:64-i64:64-i128:128-f80:128-n8:16:32:64-S128"
target triple = "x86_64-pc-linux-gnu"

%struct.H5VL_connector_t = type { ptr, i64, ptr, ptr }

@.str = private unnamed_addr constant [106 x i8] c"generated/home/dtcxzyw/WorkSpace/Projects/compilers/llvm-opt-benchmark/bench/hdf5/hdf5/src/H5VLcallback.c\00", align 1
@H5E_ARGS_g = external global i64, align 8
@H5E_BADTYPE_g = external global i64, align 8
@.str.1 = private unnamed_addr constant [23 x i8] c"not a VOL connector ID\00", align 1
@H5E_VOL_g = external global i64, align 8
@H5E_BADVALUE_g = external global i64, align 8
@.str.17 = private unnamed_addr constant [15 x i8] c"invalid object\00", align 1
@H5E_CANTCLOSEFILE_g = external global i64, align 8
@__func__.H5VLfile_close = private unnamed_addr constant [15 x i8] c"H5VLfile_close\00", align 1
@.str.100 = private unnamed_addr constant [21 x i8] c"unable to close file\00", align 1

; Function Attrs: nounwind uwtable
define i32 @H5VLfile_close(ptr noundef %0, i64 noundef %1, i64 noundef %2, ptr noundef %3) #0 {
  %5 = alloca ptr, align 8
  %6 = alloca i64, align 8
  %7 = alloca i64, align 8
  %8 = alloca ptr, align 8
  %9 = alloca ptr, align 8
  %10 = alloca i32, align 4
  %11 = alloca i8, align 1
  store ptr %0, ptr %5, align 8, !tbaa !42
  store i64 %1, ptr %6, align 8, !tbaa !3
  store i64 %2, ptr %7, align 8, !tbaa !3
  store ptr %3, ptr %8, align 8, !tbaa !42
  call void @llvm.lifetime.start.p0(i64 8, ptr %9) #8
  call void @llvm.lifetime.start.p0(i64 4, ptr %10) #8
  store i32 0, ptr %10, align 4, !tbaa !7
  call void @llvm.lifetime.start.p0(i64 1, ptr %11) #8
  store i8 0, ptr %11, align 1, !tbaa !9
  %12 = load ptr, ptr %5, align 8, !tbaa !42
  %13 = icmp eq ptr null, %12
  br i1 %13, label %14, label %33

14:                                               ; preds = %4
  br label %15

15:                                               ; preds = %14
  br label %16

16:                                               ; preds = %15
  br label %17

17:                                               ; preds = %16
  %18 = load i64, ptr @H5E_ARGS_g, align 8, !tbaa !3
  %19 = load i64, ptr @H5E_BADVALUE_g, align 8, !tbaa !3
  %20 = call i32 (ptr, ptr, i32, i64, i64, ptr, ...) @H5E_printf_stack(ptr noundef @.str, ptr noundef @__func__.H5VLfile_close, i32 noundef 4391, i64 noundef %18, i64 noundef %19, ptr noundef @.str.17)
  br label %21

21:                                               ; preds = %17
  br label %22

22:                                               ; preds = %21
  store i8 1, ptr %11, align 1, !tbaa !9
  %23 = load i8, ptr %11, align 1, !tbaa !9, !range !14, !noundef !15
  %24 = trunc i8 %23 to i1
  %25 = zext i1 %24 to i8
  store i8 %25, ptr %11, align 1, !tbaa !9
  br label %26

26:                                               ; preds = %22
  br label %27

27:                                               ; preds = %26
  br label %28

28:                                               ; preds = %27
  store i32 -1, ptr %10, align 4, !tbaa !7
  br label %85

29:                                               ; No predecessors!
  br label %30

30:                                               ; preds = %29
  br label %31

31:                                               ; preds = %30
  br label %32

32:                                               ; preds = %31
  br label %33

33:                                               ; preds = %32, %4
  %34 = load i64, ptr %6, align 8, !tbaa !3
  %35 = call ptr @H5I_object_verify(i64 noundef %34, i32 noundef 9)
  store ptr %35, ptr %9, align 8, !tbaa !11
  %36 = icmp eq ptr null, %35
  br i1 %36, label %37, label %56

37:                                               ; preds = %33
  br label %38

38:                                               ; preds = %37
  br label %39

39:                                               ; preds = %38
  br label %40

40:                                               ; preds = %39
  %41 = load i64, ptr @H5E_ARGS_g, align 8, !tbaa !3
  %42 = load i64, ptr @H5E_BADTYPE_g, align 8, !tbaa !3
  %43 = call i32 (ptr, ptr, i32, i64, i64, ptr, ...) @H5E_printf_stack(ptr noundef @.str, ptr noundef @__func__.H5VLfile_close, i32 noundef 4393, i64 noundef %41, i64 noundef %42, ptr noundef @.str.1)
  br label %44

44:                                               ; preds = %40
  br label %45

45:                                               ; preds = %44
  store i8 1, ptr %11, align 1, !tbaa !9
  %46 = load i8, ptr %11, align 1, !tbaa !9, !range !14, !noundef !15
  %47 = trunc i8 %46 to i1
  %48 = zext i1 %47 to i8
  store i8 %48, ptr %11, align 1, !tbaa !9
  br label %49

49:                                               ; preds = %45
  br label %50

50:                                               ; preds = %49
  br label %51

51:                                               ; preds = %50
  store i32 -1, ptr %10, align 4, !tbaa !7
  br label %85

52:                                               ; No predecessors!
  br label %53

53:                                               ; preds = %52
  br label %54

54:                                               ; preds = %53
  br label %55

55:                                               ; preds = %54
  br label %56

56:                                               ; preds = %55, %33
  %57 = load ptr, ptr %5, align 8, !tbaa !42
  %58 = load ptr, ptr %9, align 8, !tbaa !11
  %59 = getelementptr inbounds nuw %struct.H5VL_connector_t, ptr %58, i32 0, i32 0
  %60 = load ptr, ptr %59, align 8, !tbaa !16
  %61 = load i64, ptr %7, align 8, !tbaa !3
  %62 = load ptr, ptr %8, align 8, !tbaa !42
  %63 = call i32 @H5VL__file_close(ptr noundef %57, ptr noundef %60, i64 noundef %61, ptr noundef %62)
  %64 = icmp slt i32 %63, 0
  br i1 %64, label %65, label %84

65:                                               ; preds = %56
  br label %66

66:                                               ; preds = %65
  br label %67

67:                                               ; preds = %66
  br label %68

68:                                               ; preds = %67
  %69 = load i64, ptr @H5E_VOL_g, align 8, !tbaa !3
  %70 = load i64, ptr @H5E_CANTCLOSEFILE_g, align 8, !tbaa !3
  %71 = call i32 (ptr, ptr, i32, i64, i64, ptr, ...) @H5E_printf_stack(ptr noundef @.str, ptr noundef @__func__.H5VLfile_close, i32 noundef 4397, i64 noundef %69, i64 noundef %70, ptr noundef @.str.100)
  br label %72

72:                                               ; preds = %68
  br label %73

73:                                               ; preds = %72
  store i8 1, ptr %11, align 1, !tbaa !9
  %74 = load i8, ptr %11, align 1, !tbaa !9, !range !14, !noundef !15
  %75 = trunc i8 %74 to i1
  %76 = zext i1 %75 to i8
  store i8 %76, ptr %11, align 1, !tbaa !9
  br label %77

77:                                               ; preds = %73
  br label %78

78:                                               ; preds = %77
  br label %79

79:                                               ; preds = %78
  store i32 -1, ptr %10, align 4, !tbaa !7
  br label %85

80:                                               ; No predecessors!
  br label %81

81:                                               ; preds = %80
  br label %82

82:                                               ; preds = %81
  br label %83

83:                                               ; preds = %82
  br label %84

84:                                               ; preds = %83, %56
  br label %85

85:                                               ; preds = %84, %79, %51, %28
  %86 = load i8, ptr %11, align 1, !tbaa !9, !range !14, !noundef !15
  %87 = trunc i8 %86 to i1
  %88 = xor i1 %87, true
  %89 = xor i1 %88, true
  %90 = zext i1 %89 to i32
  %91 = sext i32 %90 to i64
  %92 = call i64 @llvm.expect.i64(i64 %91, i64 0)
  %93 = icmp ne i64 %92, 0
  br i1 %93, label %94, label %96

94:                                               ; preds = %85
  %95 = call i32 @H5E_dump_api_stack()
  br label %96

96:                                               ; preds = %94, %85
  %97 = load i32, ptr %10, align 4, !tbaa !7
  call void @llvm.lifetime.end.p0(i64 1, ptr %11) #8
  call void @llvm.lifetime.end.p0(i64 4, ptr %10) #8
  call void @llvm.lifetime.end.p0(i64 8, ptr %9) #8
  ret i32 %97
}